(lp0
(F12537.88984760363
(lp1
I10
aI21
aI16
aI21
aI21
atp2
a(F13030.377627750597
(lp3
I21
aI21
aI21
aI15
aI9
aI21
atp4
a(F13677.703134567786
(lp5
I11
aI24
aI21
aI20
aI10
aI15
aI21
atp6
a(F15488.903771093237
(lp7
I9
aI15
aI21
aI12
aI10
aI20
aI145
aI21
atp8
a(F13924.659061438351
(lp9
I10
aI21
aI15
aI20
aI21
aI16
aI24
aI12
aI8
atp10
a.