(lp0
(F-759.9560721809311
(lp1
I8
aI8
aI8
aI8
aI8
atp2
a(F-676.9219365845108
(lp3
I8
aI8
aI8
aI8
aI8
aI11
atp4
a(F-647.9862068101852
(lp5
I8
aI8
aI8
aI8
aI8
aI8
aI8
atp6
a(F-578.6613662595805
(lp7
I8
aI9
aI8
aI8
aI8
aI8
aI8
aI8
atp8
a(F-475.40161759619656
(lp9
I8
aI8
aI8
aI8
aI8
aI8
aI12
aI8
aI8
atp10
a.