(lp0
(F-858.264395348259
(lp1
I11
aI12
aI12
aI11
aI10
atp2
a(F-784.3861163964534
(lp3
I12
aI11
aI12
aI11
aI12
aI13
atp4
a(F-705.6637984640806
(lp5
I12
aI12
aI11
aI12
aI12
aI12
aI12
atp6
a(F-650.7670647148159
(lp7
I15
aI12
aI12
aI12
aI12
aI12
aI12
aI12
atp8
a(F-543.4497718105911
(lp9
I12
aI12
aI12
aI11
aI12
aI12
aI12
aI12
aI14
atp10
a.