(lp0
(F-857.2157219821094
(lp1
I11
aI12
aI12
aI11
aI10
atp2
a(F-783.3285020431035
(lp3
I12
aI11
aI12
aI11
aI12
aI13
atp4
a(F-702.3436557141786
(lp5
I12
aI12
aI11
aI12
aI12
aI12
aI12
atp6
a(F-649.702636160567
(lp7
I15
aI12
aI12
aI12
aI12
aI12
aI12
aI12
atp8
a(F-542.386878060415
(lp9
I12
aI12
aI12
aI11
aI12
aI12
aI12
aI12
aI14
atp10
a.