(lp0
(F-858.2974542866801
(lp1
I11
aI12
aI12
aI11
aI10
atp2
a(F-822.365420819729
(lp3
I12
aI12
aI11
aI12
aI12
aI12
atp4
a(F-705.6973499221995
(lp5
I12
aI12
aI11
aI12
aI12
aI12
aI12
atp6
a(F-650.8006782481082
(lp7
I15
aI12
aI12
aI12
aI12
aI12
aI12
aI12
atp8
a(F-543.4833232687104
(lp9
I12
aI12
aI12
aI11
aI12
aI12
aI12
aI12
aI14
atp10
a.